; ModuleID = '60/230.c'
source_filename = "60/230.c"
target datalayout = "e-m:e-p270:32:32-p271:32:32-p272:64:64-i64:64-f80:128-n8:16:32:64-S128"
target triple = "x86_64-pc-linux-gnu"

@.str = private unnamed_addr constant [3 x i8] c"%d\00", align 1
@.str.1 = private unnamed_addr constant [7 x i8] c"%d %d\0A\00", align 1
@.str.2 = private unnamed_addr constant [7 x i8] c"empty\0A\00", align 1

; Function Attrs: noinline nounwind uwtable
define dso_local i32 @main() #0 {
  %1 = alloca i32, align 4
  %2 = alloca i32, align 4
  %3 = alloca i32, align 4
  %4 = alloca i32, align 4
  %5 = alloca i32, align 4
  %6 = alloca i32, align 4
  %7 = alloca i32, align 4
  store i32 0, i32* %1, align 4
  %8 = call i32 (i8*, ...) @__isoc99_scanf(i8* getelementptr inbounds ([3 x i8], [3 x i8]* @.str, i64 0, i64 0), i32* %2)
  store i32 2, i32* %3, align 4
  store i32 0, i32* %7, align 4
  %9 = load i32, i32* %2, align 4
  %10 = icmp sgt i32 %9, 2
  br i1 %10, label %11, label %62

11:                                               ; preds = %0
  store i32 3, i32* %4, align 4
  br label %12

12:                                               ; preds = %53, %11
  %13 = load i32, i32* %4, align 4
  %14 = load i32, i32* %2, align 4
  %15 = icmp sle i32 %13, %14
  br i1 %15, label %16, label %56

16:                                               ; preds = %12
  store i32 1, i32* %6, align 4
  store i32 2, i32* %5, align 4
  br label %17

17:                                               ; preds = %31, %16
  %18 = load i32, i32* %5, align 4
  %19 = load i32, i32* %4, align 4
  %20 = sitofp i32 %19 to double
  %21 = call double @sqrt(double %20) #3
  %22 = fptosi double %21 to i32
  %23 = icmp sle i32 %18, %22
  br i1 %23, label %24, label %34

24:                                               ; preds = %17
  %25 = load i32, i32* %4, align 4
  %26 = load i32, i32* %5, align 4
  %27 = srem i32 %25, %26
  %28 = icmp eq i32 %27, 0
  br i1 %28, label %29, label %30

29:                                               ; preds = %24
  store i32 0, i32* %6, align 4
  br label %34

30:                                               ; preds = %24
  br label %31

31:                                               ; preds = %30
  %32 = load i32, i32* %5, align 4
  %33 = add nsw i32 %32, 1
  store i32 %33, i32* %5, align 4
  br label %17

34:                                               ; preds = %29, %17
  %35 = load i32, i32* %6, align 4
  %36 = icmp eq i32 1, %35
  br i1 %36, label %37, label %52

37:                                               ; preds = %34
  %38 = load i32, i32* %4, align 4
  %39 = load i32, i32* %3, align 4
  %40 = sub nsw i32 %38, %39
  %41 = icmp eq i32 2, %40
  br i1 %41, label %42, label %50

42:                                               ; preds = %37
  %43 = load i32, i32* %3, align 4
  %44 = load i32, i32* %4, align 4
  %45 = call i32 (i8*, ...) @printf(i8* getelementptr inbounds ([7 x i8], [7 x i8]* @.str.1, i64 0, i64 0), i32 %43, i32 %44)
  %46 = load i32, i32* %7, align 4
  %47 = icmp eq i32 0, %46
  br i1 %47, label %48, label %49

48:                                               ; preds = %42
  store i32 1, i32* %7, align 4
  br label %49

49:                                               ; preds = %48, %42
  br label %50

50:                                               ; preds = %49, %37
  %51 = load i32, i32* %4, align 4
  store i32 %51, i32* %3, align 4
  br label %52

52:                                               ; preds = %50, %34
  br label %53

53:                                               ; preds = %52
  %54 = load i32, i32* %4, align 4
  %55 = add nsw i32 %54, 1
  store i32 %55, i32* %4, align 4
  br label %12

56:                                               ; preds = %12
  %57 = load i32, i32* %7, align 4
  %58 = icmp eq i32 0, %57
  br i1 %58, label %59, label %61

59:                                               ; preds = %56
  %60 = call i32 (i8*, ...) @printf(i8* getelementptr inbounds ([7 x i8], [7 x i8]* @.str.2, i64 0, i64 0))
  br label %61

61:                                               ; preds = %59, %56
  br label %64

62:                                               ; preds = %0
  %63 = call i32 (i8*, ...) @printf(i8* getelementptr inbounds ([7 x i8], [7 x i8]* @.str.2, i64 0, i64 0))
  br label %64

64:                                               ; preds = %62, %61
  ret i32 0
}

declare dso_local i32 @__isoc99_scanf(i8*, ...) #1

; Function Attrs: nounwind
declare dso_local double @sqrt(double) #2

declare dso_local i32 @printf(i8*, ...) #1


!llvm.module.flags = !{!0}
!llvm.ident = !{!1}

!0 = !{i32 1, !"wchar_size", i32 4}
!1 = !{!"clang version 10.0.0-4ubuntu1 "}
